; Function Attrs: mustprogress nofree norecurse nosync nounwind willreturn memory(readwrite, argmem: write, inaccessiblemem: none) uwtable
define void @lv_display_set_draw_buffers(ptr noundef writeonly %0, ptr noundef %1, ptr noundef %2) local_unnamed_addr #5 {
  %4 = icmp eq ptr %0, null
  br i1 %4, label %5, label %.thread

5:                                                ; preds = %3
  %6 = load ptr, ptr getelementptr inbounds nuw (i8, ptr @lv_global, i64 40), align 8, !tbaa !33
  %7 = icmp eq ptr %6, null
  br i1 %7, label %11, label %.thread

.thread:                                          ; preds = %3, %5
  %.010 = phi ptr [ %6, %5 ], [ %0, %3 ]
  %8 = getelementptr inbounds nuw i8, ptr %.010, i64 32
  store ptr %1, ptr %8, align 8, !tbaa !63
  %9 = getelementptr inbounds nuw i8, ptr %.010, i64 40
  store ptr %2, ptr %9, align 8, !tbaa !64
  %10 = getelementptr inbounds nuw i8, ptr %.010, i64 48
  store ptr %1, ptr %10, align 8, !tbaa !65
  br label %11

11:                                               ; preds = %5, %.thread
  ret void
}